; Function Attrs: mustprogress nounwind uwtable
define hidden void @_ZN10ArrayKlass13oop_verify_onEP7oopDescP12outputStream(ptr nocapture nonnull readnone align 8 %0, ptr nocapture noundef readonly %1, ptr nocapture readnone %2) unnamed_addr #0 align 2 {
  %4 = load i8, ptr @UseCompressedClassPointers, align 1
  %5 = trunc i8 %4 to i1
  %6 = getelementptr inbounds i8, ptr %1, i64 8
  br i1 %5, label %7, label %17

7:                                                ; preds = %3
  %8 = load i32, ptr %6, align 8
  %9 = load ptr, ptr @_ZN23CompressedKlassPointers5_baseE, align 8
  %10 = load i32, ptr @_ZN23CompressedKlassPointers6_shiftE, align 4
  %11 = ptrtoint ptr %9 to i64
  %12 = zext i32 %8 to i64
  %13 = zext nneg i32 %10 to i64
  %14 = shl i64 %12, %13
  %15 = add i64 %14, %11
  %16 = inttoptr i64 %15 to ptr
  br label %_ZNK7oopDesc8is_arrayEv.exit

17:                                               ; preds = %3
  %18 = load ptr, ptr %6, align 8
  br label %_ZNK7oopDesc8is_arrayEv.exit

_ZNK7oopDesc8is_arrayEv.exit:                     ; preds = %7, %17
  %.0.i.i = phi ptr [ %16, %7 ], [ %18, %17 ]
  %19 = getelementptr inbounds i8, ptr %.0.i.i, i64 12
  %20 = load i32, ptr %19, align 4
  %21 = icmp sgt i32 %20, 4
  br i1 %21, label %24, label %22

22:                                               ; preds = %_ZNK7oopDesc8is_arrayEv.exit
  %23 = load ptr, ptr @g_assert_poison, align 8
  store i8 88, ptr %23, align 1
  tail call void (ptr, i32, ptr, ptr, ...) @_Z15report_vm_errorPKciS0_S0_z(ptr noundef nonnull @.str, i32 noundef 300, ptr noundef nonnull @.str.11, ptr noundef nonnull @.str.12) #14
  unreachable

24:                                               ; preds = %_ZNK7oopDesc8is_arrayEv.exit
  %25 = select i1 %5, i64 12, i64 16
  %26 = getelementptr inbounds i8, ptr %1, i64 %25
  %27 = load i32, ptr %26, align 4
  %28 = icmp sgt i32 %27, -1
  br i1 %28, label %31, label %29

29:                                               ; preds = %24
  %30 = load ptr, ptr @g_assert_poison, align 8
  store i8 88, ptr %30, align 1
  tail call void (ptr, i32, ptr, ptr, ...) @_Z15report_vm_errorPKciS0_S0_z(ptr noundef nonnull @.str, i32 noundef 302, ptr noundef nonnull @.str.13, ptr noundef nonnull @.str.14) #14
  unreachable

31:                                               ; preds = %24
  ret void
}